target datalayout = "e-m:e-p270:32:32-p271:32:32-p272:64:64-i64:64-i128:128-f80:128-n8:16:32:64-S128"
target triple = "x86_64-pc-linux-gnu"

%struct.AVChannelLayout = type { i32, i32, %union.anon.1, ptr }
%union.anon.1 = type { i64 }
%struct.AVFilterContext = type { ptr, ptr, ptr, ptr, ptr, i32, ptr, ptr, i32, ptr, ptr, i32, i32, ptr, ptr, ptr, ptr, i32, ptr, i32, i32 }
%struct.EarwaxContext = type { [2 x [32 x i16]], [4 x [64 x i16]], [2 x ptr] }
%struct.AVFilterLink = type { ptr, ptr, ptr, ptr, i32, i32, i32, i32, %struct.AVRational, i32, i32, i32, %struct.AVChannelLayout, %struct.AVRational, ptr, i32, %struct.AVFilterFormatsConfig, %struct.AVFilterFormatsConfig }
%struct.AVRational = type { i32, i32 }
%struct.AVFilterFormatsConfig = type { ptr, ptr, ptr, ptr, ptr }

@filt = internal constant [64 x i8] c"\04\FA\04\F5\FF\FB\03\03\FE\05\FB\00\09\01\06\03\FC\FF\FB\FD\FE\FB\F9\01\06\F9\1E\E3\0C\FD\F5\04\FD\07\EC\17\02\00\01\FA\F2\FB\0F\EE\06\07\0F\F6\F2\16\F9\FE\FC\09\06\F4\06\FA\00\F5\00\FB\04\00", align 16

; Function Attrs: nounwind uwtable
define internal i32 @config_input(ptr noundef %0) #1 {
  %2 = alloca ptr, align 8
  %3 = alloca ptr, align 8
  %4 = alloca i32, align 4
  store ptr %0, ptr %2, align 8, !tbaa !27
  call void @llvm.lifetime.start.p0(i64 8, ptr %3) #7
  %5 = load ptr, ptr %2, align 8, !tbaa !27
  %6 = getelementptr inbounds nuw %struct.AVFilterLink, ptr %5, i32 0, i32 2
  %7 = load ptr, ptr %6, align 8, !tbaa !31
  %8 = getelementptr inbounds nuw %struct.AVFilterContext, ptr %7, i32 0, i32 9
  %9 = load ptr, ptr %8, align 8, !tbaa !9
  store ptr %9, ptr %3, align 8, !tbaa !22
  call void @llvm.lifetime.start.p0(i64 4, ptr %4) #7
  store i32 0, ptr %4, align 4, !tbaa !26
  br label %10

10:                                               ; preds = %40, %1
  %11 = load i32, ptr %4, align 4, !tbaa !26
  %12 = icmp slt i32 %11, 32
  br i1 %12, label %14, label %13

13:                                               ; preds = %10
  call void @llvm.lifetime.end.p0(i64 4, ptr %4) #7
  br label %43

14:                                               ; preds = %10
  %15 = load i32, ptr %4, align 4, !tbaa !26
  %16 = mul nsw i32 %15, 2
  %17 = sext i32 %16 to i64
  %18 = getelementptr inbounds [64 x i8], ptr @filt, i64 0, i64 %17
  %19 = load i8, ptr %18, align 1, !tbaa !48
  %20 = sext i8 %19 to i16
  %21 = load ptr, ptr %3, align 8, !tbaa !22
  %22 = getelementptr inbounds nuw %struct.EarwaxContext, ptr %21, i32 0, i32 0
  %23 = getelementptr inbounds [2 x [32 x i16]], ptr %22, i64 0, i64 0
  %24 = load i32, ptr %4, align 4, !tbaa !26
  %25 = sext i32 %24 to i64
  %26 = getelementptr inbounds [32 x i16], ptr %23, i64 0, i64 %25
  store i16 %20, ptr %26, align 2, !tbaa !49
  %27 = load i32, ptr %4, align 4, !tbaa !26
  %28 = mul nsw i32 %27, 2
  %29 = add nsw i32 %28, 1
  %30 = sext i32 %29 to i64
  %31 = getelementptr inbounds [64 x i8], ptr @filt, i64 0, i64 %30
  %32 = load i8, ptr %31, align 1, !tbaa !48
  %33 = sext i8 %32 to i16
  %34 = load ptr, ptr %3, align 8, !tbaa !22
  %35 = getelementptr inbounds nuw %struct.EarwaxContext, ptr %34, i32 0, i32 0
  %36 = getelementptr inbounds [2 x [32 x i16]], ptr %35, i64 0, i64 1
  %37 = load i32, ptr %4, align 4, !tbaa !26
  %38 = sext i32 %37 to i64
  %39 = getelementptr inbounds [32 x i16], ptr %36, i64 0, i64 %38
  store i16 %33, ptr %39, align 2, !tbaa !49
  br label %40

40:                                               ; preds = %14
  %41 = load i32, ptr %4, align 4, !tbaa !26
  %42 = add nsw i32 %41, 1
  store i32 %42, ptr %4, align 4, !tbaa !26
  br label %10, !llvm.loop !51

43:                                               ; preds = %13
  call void @llvm.lifetime.end.p0(i64 8, ptr %3) #7
  ret i32 0
}