; Function Attrs: nofree norecurse nosync nounwind memory(readwrite, inaccessiblemem: none) uwtable
define internal noundef i32 @config_input(ptr noundef readonly captures(none) %0) #2 {
  %2 = getelementptr inbounds nuw i8, ptr %0, i64 16
  %3 = load ptr, ptr %2, align 8, !tbaa !22
  %4 = getelementptr inbounds nuw i8, ptr %3, i64 72
  %5 = load ptr, ptr %4, align 8, !tbaa !4
  %6 = getelementptr inbounds nuw i8, ptr %5, i64 64
  br label %8

7:                                                ; preds = %8
  ret i32 0

8:                                                ; preds = %1, %8
  %indvars.iv = phi i64 [ 0, %1 ], [ %indvars.iv.next, %8 ]
  %9 = shl nuw nsw i64 %indvars.iv, 1
  %10 = getelementptr inbounds nuw [64 x i8], ptr @filt, i64 0, i64 %9
  %11 = load i8, ptr %10, align 2, !tbaa !48
  %12 = sext i8 %11 to i16
  %13 = getelementptr inbounds nuw [32 x i16], ptr %5, i64 0, i64 %indvars.iv
  store i16 %12, ptr %13, align 2, !tbaa !43
  %14 = or disjoint i64 %9, 1
  %15 = getelementptr inbounds nuw [64 x i8], ptr @filt, i64 0, i64 %14
  %16 = load i8, ptr %15, align 1, !tbaa !48
  %17 = sext i8 %16 to i16
  %18 = getelementptr inbounds nuw [32 x i16], ptr %6, i64 0, i64 %indvars.iv
  store i16 %17, ptr %18, align 2, !tbaa !43
  %indvars.iv.next = add nuw nsw i64 %indvars.iv, 1
  %exitcond.not = icmp eq i64 %indvars.iv.next, 32
  br i1 %exitcond.not, label %7, label %8, !llvm.loop !49
}